     1                                  Section .data
     2                                  ;42=punto
     3                                  ;45=linea horizontal
     4                                  ;32=espacio
     5                                  ;124=linea vertical
     6 00000000 2E202E202E202E0A        	arreglo db 46,32,46,32,46,32,46,10,
     7 00000008 202020202020200A        			db 32,32,32,32,32,32,32,10,
     8 00000010 2E202E202E202E0A        			db 46,32,46,32,46,32,46,10,
     9 00000018 202020202020200A        			db 32,32,32,32,32,32,32,10,
    10 00000020 2E202E202E202E0A        			db 46,32,46,32,46,32,46,10,
    11 00000028 202020202020200A        			db 32,32,32,32,32,32,32,10,
    12 00000030 2E202E202E202E0A0A      			db 46,32,46,32,46,32,46,10,10;
    13                                  			
    14                                  	
    15                                  	len1: equ $-arreglo
    16                                  	
    17 00000039 2E202E202E202E202E-     	arreglo2 db 46,32,46,32,46,32,46,32,46,32,46,10,
    18 00000042 202E0A             
    19 00000045 202020202020202020-     			db 32,32,32,32,32,32,32,32,32,32,32,10,
    20 0000004E 20200A             
    21 00000051 2E202E202E202E202E-     			db 46,32,46,32,46,32,46,32,46,32,46,10,
    22 0000005A 202E0A             
    23 0000005D 202020202020202020-     			db 32,32,32,32,32,32,32,32,32,32,32,10,
    24 00000066 20200A             
    25 00000069 2E202E202E202E202E-     			db 46,32,46,32,46,32,46,32,46,32,46,10,
    26 00000072 202E0A             
    27 00000075 202020202020202020-     			db 32,32,32,32,32,32,32,32,32,32,32,10,
    28 0000007E 20200A             
    29 00000081 2E202E202E202E202E-     			db 46,32,46,32,46,32,46,32,46,32,46,10,
    30 0000008A 202E0A             
    31 0000008D 202020202020202020-     			db 32,32,32,32,32,32,32,32,32,32,32,10,
    32 00000096 20200A             
    33 00000099 2E202E202E202E202E-     			db 46,32,46,32,46,32,46,32,46,32,46,10,
    34 000000A2 202E0A             
    35 000000A5 202020202020202020-     			db 32,32,32,32,32,32,32,32,32,32,32,10,
    36 000000AE 20200A             
    37 000000B1 2E202E202E202E202E-     			db 46,32,46,32,46,32,46,32,46,32,46,10,10;
    38 000000BA 202E0A0A           
    39                                  			
    40                                  	
    41                                  	len2: equ $-arreglo2
    42                                  	
    43 000000BE 2E202E202E202E202E-     	arreglo3 db 46,32,46,32,46,32,46,32,46,32,46,32,46,32,46,10,
    44 000000C7 202E202E202E0A     
    45 000000CE 202020202020202020-     			db 32,32,32,32,32,32,32,32,32,32,32,32,32,32,32,10,
    46 000000D7 2020202020200A     
    47 000000DE 2E202E202E202E202E-     			db 46,32,46,32,46,32,46,32,46,32,46,32,46,32,46,10,
    48 000000E7 202E202E202E0A     
    49 000000EE 202020202020202020-     			db 32,32,32,32,32,32,32,32,32,32,32,32,32,32,32,10,
    50 000000F7 2020202020200A     
    51 000000FE 2E202E202E202E202E-     			db 46,32,46,32,46,32,46,32,46,32,46,32,46,32,46,10,
    52 00000107 202E202E202E0A     
    53 0000010E 202020202020202020-     			db 32,32,32,32,32,32,32,32,32,32,32,32,32,32,32,10,
    54 00000117 2020202020200A     
    55 0000011E 2E202E202E202E202E-     			db 46,32,46,32,46,32,46,32,46,32,46,32,46,32,46,10,
    56 00000127 202E202E202E0A     
    57 0000012E 202020202020202020-     			db 32,32,32,32,32,32,32,32,32,32,32,32,32,32,32,10,
    58 00000137 2020202020200A     
    59 0000013E 2E202E202E202E202E-     			db 46,32,46,32,46,32,46,32,46,32,46,32,46,32,46,10,
    60 00000147 202E202E202E0A     
    61 0000014E 202020202020202020-     			db 32,32,32,32,32,32,32,32,32,32,32,32,32,32,32,10,
    62 00000157 2020202020200A     
    63 0000015E 2E202E202E202E202E-     			db 46,32,46,32,46,32,46,32,46,32,46,32,46,32,46,10,
    64 00000167 202E202E202E0A     
    65 0000016E 202020202020202020-     			db 32,32,32,32,32,32,32,32,32,32,32,32,32,32,32,10,
    66 00000177 2020202020200A     
    67 0000017E 2E202E202E202E202E-     			db 46,32,46,32,46,32,46,32,46,32,46,32,46,32,46,10,
    68 00000187 202E202E202E0A     
    69 0000018E 202020202020202020-     			db 32,32,32,32,32,32,32,32,32,32,32,32,32,32,32,10,
    70 00000197 2020202020200A     
    71 0000019E 2E202E202E202E202E-     			db 46,32,46,32,46,32,46,32,46,32,46,32,46,32,46,10,10;
    72 000001A7 202E202E202E0A0A   
    73                                  			
    74                                  	
    75                                  	len3: equ $-arreglo3
    76                                  	
    77                                  
    78 000001AF 08000000                	ocho dd 8
    79 000001B3 07000000                	siete dd 7
    80 000001B7 2D000000                	cuarentacinco dd 45
    81 000001BB 7C000000                	cienveinticuatro dd 124
    82 000001BF 2E000000                	cuarentaseis dd 46
    83 000001C3 0C000000                	doce dd 12
    84 000001C7 0B000000                	once dd 11
    85                                  	
    86                                  	
    87 000001CB 20000000                	treintaYdos dd 32
    88 000001CF 10000000                	dieciseis dd 16
    89 000001D3 0F000000                	quince dd 15
    90                                  
    91 000001D7 646967697465207375-     	msj1 db "digite su x: "
    92 000001E0 20783A20           
    93                                  	msjlen1 equ $-msj1
    94                                  	
    95 000001E4 646967697465207375-     	msj2 db "digite su y: "
    96 000001ED 20793A20           
    97                                  	msjlen2 equ $-msj2
    98                                  	
    99                                  	
   100 000001F1 4375616E746F73204A-     	jugadores db "Cuantos Jugadores se disponen a participar? "
   101 000001FA 756761646F72657320-
   102 00000203 736520646973706F6E-
   103 0000020C 656E20612070617274-
   104 00000215 6963697061723F20   
   105                                  	lenJugadores equ $-jugadores
   106                                  	
   107 0000021D 4375616C2065732065-     	nombre db "Cual es el nombre del jugador: "
   108 00000226 6C206E6F6D62726520-
   109 0000022F 64656C206A75676164-
   110 00000238 6F723A20           
   111                                  	lenNombre equ $-nombre
   112                                  	
   113 0000023C 456E20657365206573-     	Error1 db "En ese espacio ya hay una raya. ",10
   114 00000245 706163696F20796120-
   115 0000024E 68617920756E612072-
   116 00000257 6179612E200A       
   117                                  	Error1len equ $-Error1
   118                                  
   119 0000025D 456E20657365206573-     	Error2 db "En ese espacio no se puede dibujar una raya. ",10
   120 00000266 706163696F206E6F20-
   121 0000026F 736520707565646520-
   122 00000278 646962756A61722075-
   123 00000281 6E6120726179612E20-
   124 0000028A 0A                 
   125                                  	Error2len equ $-Error2
   126                                  	
   127 0000028B 4572726F7221204C61-     	Error3 db "Error! La cantidad de jugadores debe ser 2,3 o 4. ",10
   128 00000294 2063616E7469646164-
   129 0000029D 206465206A75676164-
   130 000002A6 6F7265732064656265-
   131 000002AF 2073657220322C3320-
   132 000002B8 6F20342E200A       
   133                                  	Error3len equ $-Error3
   134                                  	
   135 000002BE 4573207475726E6F20-     	turnoDe db "Es turno de:"
   136 000002C7 64653A             
   137                                  	lenTurnoDe equ $-turnoDe
   138                                  	
   139                                  Section .bss
   140                                  
   141 00000000 <res 00000002>          	cantidadJugadores resb 2
   142                                  	lenCantidadJugadores equ 2
   143                                  	
   144 00000002 <res 00000001>          	turno resb 1
   145                                  	
   146 00000003 <res 00000001>          	res resb 1
   147                                  	
   148 00000004 <res 00000008>          	punto resd 2
   149                                  	
   150 0000000C <res 00000004>          	x resb 4
   151 00000010 <res 00000004>          	y resb 4
   152                                  	xlen equ 4
   153                                  	ylen equ 4
   154                                  	
   155                                  	
   156                                  	
   157 00000014 <res 00000002>          	letra resb 2
   158                                  	
   159 00000016 <res 00000014>          	nombre1 resb 20
   160 0000002A <res 00000014>          	nombre2 resb 20
   161 0000003E <res 00000014>          	nombre3 resb 20
   162 00000052 <res 00000014>          	nombre4 resb 20
   163                                  	lenNombre1 equ 20
   164                                  	lenNombre2 equ 20
   165                                  	lenNombre3 equ 20
   166                                  	lenNombre4 equ 20
   167                                  	
   168                                  Section .text
   169                                  	global _start
   170                                  	
   171                                  	_start:
   172                                  	
   173                                  	juego:
   174 00000000 B9[F1010000]            			mov ecx,jugadores
   175 00000005 BA2C000000              			mov edx,lenJugadores
   176 0000000A BB01000000              			mov ebx,1
   177 0000000F B804000000              			mov eax,4
   178 00000014 CD80                    			int 0x80;imprimimos el msj de solicitud
   179                                  			
   180 00000016 B9[00000000]            			mov ecx,cantidadJugadores
   181 0000001B BA02000000              			mov edx,lenCantidadJugadores
   182 00000020 BB00000000              			mov ebx,0
   183 00000025 B803000000              			mov eax,3
   184 0000002A CD80                    			int 0x80;obtenemos datos del teclado
   185                                  			
   186 0000002C A0[00000000]            			mov al,[cantidadJugadores]
   187 00000031 2C30                    			sub al,48
   188 00000033 3C02                    			cmp al,2
   189 00000035 742A                    			je pequenio
   190                                  
   191 00000037 3C03                    			cmp al,3
   192 00000039 0F84C3020000            			je mediano
   193                                  			
   194 0000003F 3C04                    			cmp al,4
   195 00000041 0F84C8050000            			je grande
   196                                  			
   197 00000047 EB00                    			jmp Imprime_Error_Jugadores
   198                                  
   199                                  	Imprime_Error_Jugadores:
   200 00000049 B9[8B020000]            			mov ecx,Error3
   201 0000004E BA33000000              			mov edx,Error3len
   202 00000053 BB01000000              			mov ebx,1
   203 00000058 B804000000              			mov eax,4
   204 0000005D CD80                    			int 0x80;imprimimos el msj de solicitud
   205 0000005F EB9F                    			jmp juego
   206                                  
   207                                  ;=======================================================================
   208                                  ;+++++++++++++++++++++++++++++++++++++++++++++++++++++++++++++++++++++++
   209                                  ;=======================================================================
   210                                  	
   211                                  	pequenio:
   212                                  		
   213 00000061 B9[1D020000]            		mov ecx,nombre
   214 00000066 BA1F000000              		mov edx,lenNombre
   215 0000006B BB01000000              		mov ebx,1
   216 00000070 B804000000              		mov eax,4
   217 00000075 CD80                    		int 0x80;imprimimos el msj de solicitud
   218                                  			
   219 00000077 B9[16000000]            		mov ecx,nombre1
   220 0000007C BA14000000              		mov edx,lenNombre1
   221 00000081 BB00000000              		mov ebx,0
   222 00000086 B803000000              		mov eax,3
   223 0000008B CD80                    		int 0x80;obtenemos datos del teclado
   224                                  			
   225 0000008D B9[1D020000]            		mov ecx,nombre
   226 00000092 BA1F000000              		mov edx,lenNombre
   227 00000097 BB01000000              		mov ebx,1
   228 0000009C B804000000              		mov eax,4
   229 000000A1 CD80                    		int 0x80;imprimimos el msj de solicitud
   230                                  			
   231 000000A3 B9[2A000000]            		mov ecx,nombre2
   232 000000A8 BA14000000              		mov edx,lenNombre2
   233 000000AD BB00000000              		mov ebx,0
   234 000000B2 B803000000              		mov eax,3
   235 000000B7 CD80                    		int 0x80;obtenemos datos del teclado
   236                                  		
   237                                  		
   238 000000B9 B301                    		mov bl,1
   239 000000BB 881D[02000000]          		mov [turno],bl
   240                                  		
   241                                  		controla_turno:
   242 000000C1 A0[02000000]            			mov al,[turno]
   243 000000C6 3C02                    			cmp al,2
   244 000000C8 7708                    			ja reset_turno
   245                                  
   246 000000CA 3C01                    			cmp al,1
   247 000000CC 740D                    			je cambio_jugador1
   248                                  			
   249 000000CE 3C02                    			cmp al,2
   250 000000D0 7412                    			je cambio_jugador2
   251                                  		
   252                                  		reset_turno:
   253 000000D2 B001                    			mov al,1
   254 000000D4 A2[02000000]            			mov [turno],al
   255 000000D9 EBE6                    			jmp controla_turno
   256                                  
   257                                  		cambio_jugador1:
   258 000000DB B04C                    			mov al,76;[nombre1-(lenNombre1+1)]
   259 000000DD A2[14000000]            			mov [letra],al
   260 000000E2 EB09                    			jmp pequenio_aux
   261                                  			
   262                                  		cambio_jugador2:
   263 000000E4 B04B                    			mov al,75;[nombre2-(lenNombre2+1)]
   264 000000E6 A2[14000000]            			mov [letra],al
   265 000000EB EB00                    			jmp pequenio_aux
   266                                  			
   267                                  			
   268                                  		pequenio_aux:
   269                                  
   270                                  
   271 000000ED BF00000000              			mov edi,0
   272                                  			Imprime_matriz:
   273                                  				
   274 000000F2 8A87[00000000]          				mov al,[arreglo+edi]
   275 000000F8 A2[03000000]            				mov [res],al
   276 000000FD BA01000000              				mov edx,1
   277 00000102 B9[03000000]            				mov ecx,res
   278                                  				
   279 00000107 BB01000000              				mov ebx,1
   280 0000010C B804000000              				mov eax,4
   281 00000111 CD80                    				int 0x80
   282                                  				
   283 00000113 47                      				inc edi
   284 00000114 83FF39                  				cmp edi,len1
   285 00000117 75D9                    				jne Imprime_matriz
   286                                  			
   287                                  			solicita_punto:
   288                                  			
   289 00000119 B9[D7010000]            				mov ecx,msj1
   290 0000011E BA0D000000              				mov edx,msjlen1
   291 00000123 BB01000000              				mov ebx,1
   292 00000128 B804000000              				mov eax,4
   293 0000012D CD80                    				int 0x80
   294                                  				
   295 0000012F B9[0C000000]            				mov ecx,x
   296 00000134 BA04000000              				mov edx,xlen
   297 00000139 BB00000000              				mov ebx,0
   298 0000013E B803000000              				mov eax,3
   299 00000143 CD80                    				int 0x80
   300                                  				
   301 00000145 B9[E4010000]            				mov ecx,msj2
   302 0000014A BA0D000000              				mov edx,msjlen2
   303 0000014F BB01000000              				mov ebx,1
   304 00000154 B804000000              				mov eax,4
   305 00000159 CD80                    				int 0x80
   306                                  			
   307 0000015B B9[10000000]            				mov ecx,y
   308 00000160 BA04000000              				mov edx,ylen
   309 00000165 BB00000000              				mov ebx,0
   310 0000016A B803000000              				mov eax,3
   311 0000016F CD80                    				int 0x80
   312                                  				
   313 00000171 66A1[0C000000]          				mov ax,[x]
   314 00000177 6683E830                				sub ax,48
   315 0000017B 66A3[0C000000]          				mov [x],ax
   316                                  				
   317 00000181 66A1[10000000]          				mov ax,[y]
   318 00000187 6683E830                				sub ax,48
   319 0000018B 66A3[10000000]          				mov [y],ax
   320                                  				
   321                                  
   322                                  			localiza_punto:
   323                                  				;recibe un x,y
   324 00000191 A0[10000000]            				mov al,[y]
   325 00000196 8A1D[AF010000]          				mov bl,[ocho]
   326 0000019C F6E3                    				mul bl
   327 0000019E 0205[0C000000]          				add al,[x]
   328 000001A4 A2[04000000]            				mov [punto],al
   329                                  				
   330                                  			par_o_impar:
   331 000001A9 66A1[04000000]          				mov ax,[punto] 
   332 000001AF 6683E001                				AND ax,1 
   333 000001B3 7502                    				jnz linea_horizontal 
   334 000001B5 EB2F                    				jmp linea_vertical 
   335                                  			
   336                                  
   337                                  			linea_horizontal:
   338 000001B7 E8DF000000              				call verifica_punto
   339 000001BC B02D                    				mov al,45
   340 000001BE 8B35[04000000]          				mov esi,[punto]
   341 000001C4 8886[00000000]          				mov [arreglo+esi],al
   342 000001CA 8B35[B3010000]          				mov esi,[siete]
   343 000001D0 8A1D[02000000]          				mov bl,[turno]
   344 000001D6 80C301                  				add bl,1
   345 000001D9 881D[02000000]          				mov [turno],bl
   346 000001DF EB34                    				jmp verifica_letra
   347 000001E1 E9DBFEFFFF              				jmp controla_turno
   348                                  			
   349                                  			linea_vertical:
   350 000001E6 E8B0000000              				call verifica_punto
   351 000001EB B07C                    				mov al,124
   352 000001ED 8B35[04000000]          				mov esi,[punto]
   353 000001F3 8886[00000000]          				mov [arreglo+esi],al
   354                                  				
   355 000001F9 8A1D[02000000]          				mov bl,[turno]
   356 000001FF 80C301                  				add bl,1
   357 00000202 881D[02000000]          				mov [turno],bl
   358                                  				
   359 00000208 8B35[B3010000]          				mov esi,[siete]
   360 0000020E EB05                    				jmp verifica_letra
   361 00000210 E9ACFEFFFF              				jmp controla_turno
   362                                  				
   363                                  			
   364                                  			
   365                                  			verifica_letra:
   366 00000215 83FE30                  				cmp esi,48
   367 00000218 0F87A3FEFFFF            				ja controla_turno
   368 0000021E 0F849DFEFFFF            				je controla_turno
   369                                  
   370 00000224 83C602                  				add esi,2
   371                                  				
   372 00000227 8A86[00000000]          				mov al,[arreglo+esi]
   373 0000022D 8A1D[14000000]          				mov bl,[letra]
   374                                  
   375 00000233 3C0A                    				cmp al,10
   376 00000235 740B                    				je suma_ocho
   377                                  				
   378 00000237 38D8                    				cmp al,bl
   379 00000239 74DA                    				je verifica_letra
   380                                  
   381 0000023B E807000000              				call verifica_cuadro
   382 00000240 EBD3                    				jmp verifica_letra
   383                                  				
   384                                  				
   385                                  			suma_ocho:
   386 00000242 83C608                  				add esi,8
   387 00000245 EBCE                    				jmp verifica_letra
   388                                  				
   389                                  			verifica_cuadro:
   390 00000247 89F7                    				mov edi,esi
   391 00000249 8A87[00000000]          				mov al,[arreglo+edi]
   392 0000024F 3C20                    				cmp al,32
   393 00000251 75C2                    				jne verifica_letra
   394                                  				
   395 00000253 89F7                    				mov edi,esi
   396 00000255 83EF08                  				sub edi,8
   397 00000258 8A87[00000000]          				mov al,[arreglo+edi]
   398 0000025E 3C20                    				cmp al,32
   399 00000260 74B3                    				je verifica_letra
   400                                  
   401 00000262 89F7                    				mov edi,esi
   402 00000264 83C701                  				add edi,1
   403 00000267 8A87[00000000]          				mov al,[arreglo+edi]
   404 0000026D 3C20                    				cmp al,32
   405 0000026F 74A4                    				je verifica_letra
   406                                  
   407 00000271 89F7                    				mov edi,esi
   408 00000273 83EF01                  				sub edi,1
   409 00000276 8A87[00000000]          				mov al,[arreglo+edi]
   410 0000027C 3C20                    				cmp al,32
   411 0000027E 7495                    				je verifica_letra
   412                                  					
   413 00000280 89F7                    				mov edi,esi
   414 00000282 83C708                  				add edi,8
   415 00000285 8A87[00000000]          				mov al,[arreglo+edi]
   416 0000028B 3C20                    				cmp al,32
   417 0000028D 7486                    				je verifica_letra
   418                                  				
   419 0000028F A0[14000000]            				mov al,[letra]
   420 00000294 8886[00000000]          				mov [arreglo+esi],al
   421                                  				
   422 0000029A C3                      				ret
   423                                  						
   424                                  			verifica_punto:
   425                                  				
   426 0000029B 8B35[04000000]          				mov esi,[punto]
   427                                  				
   428 000002A1 8A86[00000000]          				mov al,[arreglo+esi]
   429 000002A7 3A05[BF010000]          				cmp al,[cuarentaseis]
   430 000002AD 7438                    				je imprime_error2
   431                                  				
   432 000002AF 8A86[00000000]          				mov al,[arreglo+esi]
   433 000002B5 3A05[BB010000]          				cmp al,[cienveinticuatro]
   434 000002BB 740F                    				je imprime_error1
   435                                  				
   436 000002BD 8A86[00000000]          				mov al,[arreglo+esi]
   437 000002C3 3A05[B7010000]          				cmp al,[cuarentacinco]
   438 000002C9 7401                    				je imprime_error1
   439                                  				
   440 000002CB C3                      				ret
   441                                  				
   442                                  			imprime_error1:
   443                                  			
   444 000002CC B9[3C020000]            				mov ecx,Error1
   445 000002D1 BA21000000              				mov edx,Error1len
   446 000002D6 BB01000000              				mov ebx,1
   447 000002DB B804000000              				mov eax,4
   448 000002E0 CD80                    				int 0x80	
   449 000002E2 E832FEFFFF              				call solicita_punto
   450                                  				
   451                                  			imprime_error2:
   452                                  			
   453 000002E7 B9[5D020000]            				mov ecx,Error2
   454 000002EC BA2E000000              				mov edx,Error2len
   455 000002F1 BB01000000              				mov ebx,1
   456 000002F6 B804000000              				mov eax,4
   457 000002FB CD80                    				int 0x80	
   458 000002FD E817FEFFFF              				call solicita_punto
   459                                  			
   460                                  
   461                                  ;=======================================================================
   462                                  ;+++++++++++++++++++++++++++++++++++++++++++++++++++++++++++++++++++++++
   463                                  ;=======================================================================
   464                                  
   465                                  
   466                                  	mediano:
   467                                  	
   468 00000302 B9[1D020000]            		mov ecx,nombre
   469 00000307 BA1F000000              		mov edx,lenNombre
   470 0000030C BB01000000              		mov ebx,1
   471 00000311 B804000000              		mov eax,4
   472 00000316 CD80                    		int 0x80;imprimimos el msj de solicitud
   473                                  			
   474 00000318 B9[16000000]            		mov ecx,nombre1
   475 0000031D BA14000000              		mov edx,lenNombre1
   476 00000322 BB00000000              		mov ebx,0
   477 00000327 B803000000              		mov eax,3
   478 0000032C CD80                    		int 0x80;obtenemos datos del teclado
   479                                  			
   480 0000032E B9[1D020000]            		mov ecx,nombre
   481 00000333 BA1F000000              		mov edx,lenNombre
   482 00000338 BB01000000              		mov ebx,1
   483 0000033D B804000000              		mov eax,4
   484 00000342 CD80                    		int 0x80;imprimimos el msj de solicitud
   485                                  			
   486 00000344 B9[2A000000]            		mov ecx,nombre2
   487 00000349 BA14000000              		mov edx,lenNombre2
   488 0000034E BB00000000              		mov ebx,0
   489 00000353 B803000000              		mov eax,3
   490 00000358 CD80                    		int 0x80;obtenemos datos del teclado
   491                                  			
   492 0000035A B9[1D020000]            		mov ecx,nombre
   493 0000035F BA1F000000              		mov edx,lenNombre
   494 00000364 BB01000000              		mov ebx,1
   495 00000369 B804000000              		mov eax,4
   496 0000036E CD80                    		int 0x80;imprimimos el msj de solicitud
   497                                  			
   498 00000370 B9[3E000000]            		mov ecx,nombre3
   499 00000375 BA14000000              		mov edx,lenNombre3
   500 0000037A BB00000000              		mov ebx,0
   501 0000037F B803000000              		mov eax,3
   502 00000384 CD80                    		int 0x80;obtenemos datos del teclado
   503                                  		
   504 00000386 B301                    		mov bl,1
   505 00000388 881D[02000000]          		mov [turno],bl
   506                                  		
   507                                  		controla_turno2:
   508 0000038E A0[02000000]            			mov al,[turno]
   509 00000393 3C03                    			cmp al,3
   510 00000395 770C                    			ja reset_turno2
   511                                  
   512 00000397 3C01                    			cmp al,1
   513 00000399 7411                    			je cambio2_jugador1
   514                                  			
   515 0000039B 3C02                    			cmp al,2
   516 0000039D 7416                    			je cambio2_jugador2
   517                                  			
   518 0000039F 3C03                    			cmp al,3
   519 000003A1 741B                    			je cambio2_jugador3
   520                                  		
   521                                  		reset_turno2:
   522 000003A3 B001                    			mov al,1
   523 000003A5 A2[02000000]            			mov [turno],al
   524 000003AA EBE2                    			jmp controla_turno2
   525                                  
   526                                  		cambio2_jugador1:
   527 000003AC B04C                    			mov al,76;[nombre1-(lenNombre1+1)]
   528 000003AE A2[14000000]            			mov [letra],al
   529 000003B3 EB12                    			jmp mediano_aux
   530                                  			
   531                                  		cambio2_jugador2:
   532 000003B5 B04B                    			mov al,75;[nombre2-(lenNombre2+1)]
   533 000003B7 A2[14000000]            			mov [letra],al
   534 000003BC EB09                    			jmp mediano_aux
   535                                  			
   536                                  		cambio2_jugador3:
   537 000003BE B04D                    			mov al,77;[nombre2-(lenNombre2+1)]
   538 000003C0 A2[14000000]            			mov [letra],al
   539 000003C5 EB00                    			jmp mediano_aux
   540                                  		
   541                                  		mediano_aux:
   542                                  				
   543 000003C7 BF00000000              			mov edi,0
   544                                  				
   545                                  			Imprime_matriz2:
   546                                  				
   547 000003CC 8A87[39000000]          				mov al,[arreglo2+edi]
   548 000003D2 A2[03000000]            				mov [res],al
   549 000003D7 BA01000000              				mov edx,1
   550 000003DC B9[03000000]            				mov ecx,res
   551                                  				
   552 000003E1 BB01000000              				mov ebx,1
   553 000003E6 B804000000              				mov eax,4
   554 000003EB CD80                    				int 0x80
   555                                  				
   556 000003ED 47                      				inc edi
   557 000003EE 81FF85000000            				cmp edi,len2
   558 000003F4 75D6                    				jne Imprime_matriz2
   559                                  				
   560                                  
   561                                  				
   562                                  			solicita2_X:
   563                                  			
   564 000003F6 B9[D7010000]            				mov ecx,msj1
   565 000003FB BA0D000000              				mov edx,msjlen1
   566 00000400 BB01000000              				mov ebx,1
   567 00000405 B804000000              				mov eax,4
   568 0000040A CD80                    				int 0x80
   569                                  				
   570 0000040C B9[0C000000]            				mov ecx,x
   571 00000411 BA04000000              				mov edx,xlen
   572 00000416 BB00000000              				mov ebx,0
   573 0000041B B803000000              				mov eax,3
   574 00000420 CD80                    				int 0x80
   575                                  				
   576 00000422 A0[0D000000]            				mov al,[x+1]
   577 00000427 3C0A                    				cmp al,10
   578 00000429 7414                    				je Ingresa2_normalX
   579 0000042B B00A                    				mov al,10
   580 0000042D 8A1D[0D000000]          				mov bl,[x+1]
   581 00000433 80EB30                  				sub bl,48
   582 00000436 00D8                    				add al,bl
   583 00000438 A2[0C000000]            				mov [x],al
   584 0000043D EB0C                    				jmp solicita2_Y
   585                                  				
   586                                  			Ingresa2_normalX:
   587 0000043F A0[0C000000]            				mov al,[x]
   588 00000444 2C30                    				sub al,48
   589 00000446 A2[0C000000]            				mov [x],al
   590                                  			
   591                                  			solicita2_Y:
   592 0000044B B9[E4010000]            				mov ecx,msj2
   593 00000450 BA0D000000              				mov edx,msjlen2
   594 00000455 BB01000000              				mov ebx,1
   595 0000045A B804000000              				mov eax,4
   596 0000045F CD80                    				int 0x80
   597                                  			
   598 00000461 B9[10000000]            				mov ecx,y
   599 00000466 BA04000000              				mov edx,ylen
   600 0000046B BB00000000              				mov ebx,0
   601 00000470 B803000000              				mov eax,3
   602 00000475 CD80                    				int 0x80
   603                                  				
   604 00000477 A0[11000000]            				mov al,[y+1]
   605 0000047C 3C0A                    				cmp al,10
   606 0000047E 7414                    				je Ingresa2_normalY
   607 00000480 B00A                    				mov al,10
   608 00000482 8A1D[11000000]          				mov bl,[y+1]
   609 00000488 80EB30                  				sub bl,48
   610 0000048B 00D8                    				add al,bl
   611 0000048D A2[10000000]            				mov [y],al
   612 00000492 EB0C                    				jmp localiza_punto2
   613                                  			
   614                                  			Ingresa2_normalY:
   615 00000494 A0[10000000]            				mov al,[y]
   616 00000499 2C30                    				sub al,48
   617 0000049B A2[10000000]            				mov [y],al
   618                                  				
   619                                  			localiza_punto2:
   620                                  				;recibe un x,y
   621 000004A0 A0[10000000]            				mov al,[y]
   622 000004A5 8A1D[C3010000]          				mov bl,[doce]
   623 000004AB F6E3                    				mul bl
   624 000004AD 0205[0C000000]          				add al,[x]
   625 000004B3 A2[04000000]            				mov [punto],al
   626                                  
   627                                  				
   628                                  			par_o_impar2:
   629 000004B8 66A1[04000000]          				mov ax,[punto] 
   630 000004BE 6683E001                				AND ax,1 
   631 000004C2 7502                    				jnz linea_horizontal2
   632 000004C4 EB2F                    				jmp linea_vertical2 
   633                                  			
   634                                  
   635                                  			linea_horizontal2:
   636 000004C6 E8DD000000              				call verifica_punto2
   637 000004CB B02D                    				mov al,45
   638 000004CD 8B35[04000000]          				mov esi,[punto]
   639 000004D3 8886[39000000]          				mov [arreglo2+esi],al
   640                                  				
   641 000004D9 8A1D[02000000]          				mov bl,[turno]
   642 000004DF 80C301                  				add bl,1
   643 000004E2 881D[02000000]          				mov [turno],bl
   644                                  				
   645 000004E8 8B35[C7010000]          				mov esi,[once]
   646 000004EE EB34                    				jmp verifica_letra2
   647 000004F0 E999FEFFFF              				jmp controla_turno2
   648                                  			
   649                                  			linea_vertical2:
   650 000004F5 E8AE000000              				call verifica_punto2
   651 000004FA B07C                    				mov al,124
   652 000004FC 8B35[04000000]          				mov esi,[punto]
   653 00000502 8886[39000000]          				mov [arreglo2+esi],al
   654                                  				
   655 00000508 8A1D[02000000]          				mov bl,[turno]
   656 0000050E 80C301                  				add bl,1
   657 00000511 881D[02000000]          				mov [turno],bl
   658                                  				
   659 00000517 8B35[C7010000]          				mov esi,[once]
   660 0000051D EB05                    				jmp verifica_letra2
   661 0000051F E96AFEFFFF              				jmp controla_turno2
   662                                  			
   663                                  			verifica_letra2:
   664 00000524 83FE78                  				cmp esi,120
   665 00000527 0F8761FEFFFF            				ja controla_turno2
   666 0000052D 0F845BFEFFFF            				je controla_turno2
   667                                  
   668 00000533 83C602                  				add esi,2
   669                                  				
   670 00000536 8A86[39000000]          				mov al,[arreglo2+esi]
   671 0000053C 8A1D[14000000]          				mov bl,[letra]
   672                                  
   673 00000542 3C0A                    				cmp al,10
   674 00000544 740B                    				je suma_doce
   675                                  				
   676 00000546 38D8                    				cmp al,bl
   677 00000548 74DA                    				je verifica_letra2
   678                                  
   679 0000054A E807000000              				call verifica_cuadro2
   680 0000054F EBD3                    				jmp verifica_letra2
   681                                  				
   682                                  				
   683                                  			suma_doce:
   684 00000551 83C60C                  				add esi,12
   685 00000554 EBCE                    				jmp verifica_letra2
   686                                  				
   687                                  			verifica_cuadro2:
   688 00000556 8A86[39000000]          				mov al,[arreglo2+esi]
   689 0000055C 3C20                    				cmp al,32
   690 0000055E 75C4                    				jne verifica_letra2
   691                                  				
   692 00000560 89F7                    				mov edi,esi
   693 00000562 83EF0C                  				sub edi,12
   694 00000565 8A87[39000000]          				mov al,[arreglo2+edi]
   695 0000056B 3C20                    				cmp al,32
   696 0000056D 74B5                    				je verifica_letra2
   697                                  
   698 0000056F 89F7                    				mov edi,esi
   699 00000571 83C701                  				add edi,1
   700 00000574 8A87[39000000]          				mov al,[arreglo2+edi]
   701 0000057A 3C20                    				cmp al,32
   702 0000057C 74A6                    				je verifica_letra2
   703                                  
   704 0000057E 89F7                    				mov edi,esi
   705 00000580 83EF01                  				sub edi,1
   706 00000583 8A87[39000000]          				mov al,[arreglo2+edi]
   707 00000589 3C20                    				cmp al,32
   708 0000058B 7497                    				je verifica_letra2
   709                                  					
   710 0000058D 89F7                    				mov edi,esi
   711 0000058F 83C70C                  				add edi,12
   712 00000592 8A87[39000000]          				mov al,[arreglo2+edi]
   713 00000598 3C20                    				cmp al,32
   714 0000059A 7488                    				je verifica_letra2
   715                                  					
   716 0000059C A0[14000000]            				mov al,[letra]
   717 000005A1 8886[39000000]          				mov [arreglo2+esi],al
   718                                  
   719 000005A7 C3                      				ret
   720                                  			verifica_punto2:
   721                                  				
   722 000005A8 8B35[04000000]          				mov esi,[punto]
   723                                  				
   724 000005AE 8A86[39000000]          				mov al,[arreglo2+esi]
   725 000005B4 3A05[BF010000]          				cmp al,[cuarentaseis]
   726 000005BA 7438                    				je imprime2_error2
   727                                  				
   728 000005BC 8A86[39000000]          				mov al,[arreglo2+esi]
   729 000005C2 3A05[BB010000]          				cmp al,[cienveinticuatro]
   730 000005C8 740F                    				je imprime2_error1
   731                                  				
   732 000005CA 8A86[39000000]          				mov al,[arreglo2+esi]
   733 000005D0 3A05[B7010000]          				cmp al,[cuarentacinco]
   734 000005D6 7401                    				je imprime2_error1
   735                                  				
   736 000005D8 C3                      				ret
   737                                  				
   738                                  			imprime2_error1:
   739                                  			
   740 000005D9 B9[3C020000]            				mov ecx,Error1
   741 000005DE BA21000000              				mov edx,Error1len
   742 000005E3 BB01000000              				mov ebx,1
   743 000005E8 B804000000              				mov eax,4
   744 000005ED CD80                    				int 0x80	
   745 000005EF E802FEFFFF              				call solicita2_X
   746                                  				
   747                                  			imprime2_error2:
   748                                  			
   749 000005F4 B9[5D020000]            				mov ecx,Error2
   750 000005F9 BA2E000000              				mov edx,Error2len
   751 000005FE BB01000000              				mov ebx,1
   752 00000603 B804000000              				mov eax,4
   753 00000608 CD80                    				int 0x80	
   754 0000060A E8E7FDFFFF              				call solicita2_X
   755                                  
   756                                  ;=======================================================================
   757                                  ;+++++++++++++++++++++++++++++++++++++++++++++++++++++++++++++++++++++++
   758                                  ;=======================================================================
   759                                  
   760                                  
   761                                  	grande:
   762                                  	
   763 0000060F B9[1D020000]            		mov ecx,nombre
   764 00000614 BA1F000000              		mov edx,lenNombre
   765 00000619 BB01000000              		mov ebx,1
   766 0000061E B804000000              		mov eax,4
   767 00000623 CD80                    		int 0x80;imprimimos el msj de solicitud
   768                                  		
   769 00000625 B9[16000000]            		mov ecx,nombre1
   770 0000062A BA14000000              		mov edx,lenNombre1
   771 0000062F BB00000000              		mov ebx,0
   772 00000634 B803000000              		mov eax,3
   773 00000639 CD80                    		int 0x80;obtenemos datos del teclado
   774                                  		
   775 0000063B B9[1D020000]            		mov ecx,nombre
   776 00000640 BA1F000000              		mov edx,lenNombre
   777 00000645 BB01000000              		mov ebx,1
   778 0000064A B804000000              		mov eax,4
   779 0000064F CD80                    		int 0x80;imprimimos el msj de solicitud
   780                                  		
   781 00000651 B9[2A000000]            		mov ecx,nombre2
   782 00000656 BA14000000              		mov edx,lenNombre2
   783 0000065B BB00000000              		mov ebx,0
   784 00000660 B803000000              		mov eax,3
   785 00000665 CD80                    		int 0x80;obtenemos datos del teclado
   786                                  		
   787 00000667 B9[1D020000]            		mov ecx,nombre
   788 0000066C BA1F000000              		mov edx,lenNombre
   789 00000671 BB01000000              		mov ebx,1
   790 00000676 B804000000              		mov eax,4
   791 0000067B CD80                    		int 0x80;imprimimos el msj de solicitud
   792                                  		
   793 0000067D B9[3E000000]            		mov ecx,nombre3
   794 00000682 BA14000000              		mov edx,lenNombre3
   795 00000687 BB00000000              		mov ebx,0
   796 0000068C B803000000              		mov eax,3
   797 00000691 CD80                    		int 0x80;obtenemos datos del teclado
   798                                  		
   799                                  					
   800 00000693 B9[1D020000]            		mov ecx,nombre
   801 00000698 BA1F000000              		mov edx,lenNombre
   802 0000069D BB01000000              		mov ebx,1
   803 000006A2 B804000000              		mov eax,4
   804 000006A7 CD80                    		int 0x80;imprimimos el msj de solicitud
   805                                  		
   806 000006A9 B9[52000000]            		mov ecx,nombre4
   807 000006AE BA14000000              		mov edx,lenNombre4
   808 000006B3 BB00000000              		mov ebx,0
   809 000006B8 B803000000              		mov eax,3
   810 000006BD CD80                    		int 0x80;obtenemos datos del teclado
   811                                  			
   812 000006BF B301                    		mov bl,1
   813 000006C1 881D[02000000]          		mov [turno],bl
   814                                  		
   815                                  		controla_turno3:
   816 000006C7 A0[02000000]            			mov al,[turno]
   817 000006CC 3C04                    			cmp al,4
   818 000006CE 7710                    			ja reset_turno3
   819                                  
   820 000006D0 3C01                    			cmp al,1
   821 000006D2 7415                    			je cambio3_jugador1
   822                                  			
   823 000006D4 3C02                    			cmp al,2
   824 000006D6 741A                    			je cambio3_jugador2
   825                                  			
   826 000006D8 3C03                    			cmp al,3
   827 000006DA 741F                    			je cambio3_jugador3
   828                                  			
   829 000006DC 3C04                    			cmp al,4
   830 000006DE 7424                    			je cambio3_jugador4
   831                                  		
   832                                  		reset_turno3:
   833 000006E0 B001                    			mov al,1
   834 000006E2 A2[02000000]            			mov [turno],al
   835 000006E7 EBDE                    			jmp controla_turno3
   836                                  
   837                                  		cambio3_jugador1:
   838 000006E9 B04C                    			mov al,76;[nombre1-(lenNombre1+1)]
   839 000006EB A2[14000000]            			mov [letra],al
   840 000006F0 EB1B                    			jmp grande_aux
   841                                  			
   842                                  		cambio3_jugador2:
   843 000006F2 B04B                    			mov al,75;[nombre2-(lenNombre2+1)]
   844 000006F4 A2[14000000]            			mov [letra],al
   845 000006F9 EB12                    			jmp grande_aux
   846                                  			
   847                                  		cambio3_jugador3:
   848 000006FB B04D                    			mov al,77;[nombre2-(lenNombre2+1)]
   849 000006FD A2[14000000]            			mov [letra],al
   850 00000702 EB09                    			jmp grande_aux	
   851                                  			
   852                                  		cambio3_jugador4:
   853 00000704 B04E                    			mov al,78;[nombre2-(lenNombre2+1)]
   854 00000706 A2[14000000]            			mov [letra],al
   855 0000070B EB00                    			jmp grande_aux
   856                                  				
   857                                  		grande_aux:
   858                                  		
   859 0000070D BF00000000              			mov edi,0
   860                                  				
   861                                  			Imprime_matriz3:
   862                                  				
   863 00000712 8A87[BE000000]          				mov al,[arreglo3+edi]
   864 00000718 A2[03000000]            				mov [res],al
   865 0000071D BA01000000              				mov edx,1
   866 00000722 B9[03000000]            				mov ecx,res
   867                                  				
   868 00000727 BB01000000              				mov ebx,1
   869 0000072C B804000000              				mov eax,4
   870 00000731 CD80                    				int 0x80
   871                                  				
   872 00000733 47                      				inc edi
   873 00000734 81FFF1000000            				cmp edi,len3
   874 0000073A 75D6                    				jne Imprime_matriz3
   875                                  			
   876                                  			
   877                                  			solicita3_X:
   878                                  			
   879 0000073C B9[D7010000]            				mov ecx,msj1
   880 00000741 BA0D000000              				mov edx,msjlen1
   881 00000746 BB01000000              				mov ebx,1
   882 0000074B B804000000              				mov eax,4
   883 00000750 CD80                    				int 0x80
   884                                  				
   885 00000752 B9[0C000000]            				mov ecx,x
   886 00000757 BA04000000              				mov edx,xlen
   887 0000075C BB00000000              				mov ebx,0
   888 00000761 B803000000              				mov eax,3
   889 00000766 CD80                    				int 0x80
   890                                  				
   891 00000768 A0[0D000000]            				mov al,[x+1]
   892 0000076D 3C0A                    				cmp al,10
   893 0000076F 7414                    				je Ingresa3_normalX
   894 00000771 B00A                    				mov al,10
   895 00000773 8A1D[0D000000]          				mov bl,[x+1]
   896 00000779 80EB30                  				sub bl,48
   897 0000077C 00D8                    				add al,bl
   898 0000077E A2[0C000000]            				mov [x],al
   899 00000783 EB0C                    				jmp solicita3_Y
   900                                  				
   901                                  			Ingresa3_normalX:
   902 00000785 A0[0C000000]            				mov al,[x]
   903 0000078A 2C30                    				sub al,48
   904 0000078C A2[0C000000]            				mov [x],al
   905                                  			
   906                                  			solicita3_Y:
   907 00000791 B9[E4010000]            				mov ecx,msj2
   908 00000796 BA0D000000              				mov edx,msjlen2
   909 0000079B BB01000000              				mov ebx,1
   910 000007A0 B804000000              				mov eax,4
   911 000007A5 CD80                    				int 0x80
   912                                  			
   913 000007A7 B9[10000000]            				mov ecx,y
   914 000007AC BA04000000              				mov edx,ylen
   915 000007B1 BB00000000              				mov ebx,0
   916 000007B6 B803000000              				mov eax,3
   917 000007BB CD80                    				int 0x80
   918                                  				
   919 000007BD A0[11000000]            				mov al,[y+1]
   920 000007C2 3C0A                    				cmp al,10
   921 000007C4 7414                    				je Ingresa3_normalY
   922 000007C6 B00A                    				mov al,10
   923 000007C8 8A1D[11000000]          				mov bl,[y+1]
   924 000007CE 80EB30                  				sub bl,48
   925 000007D1 00D8                    				add al,bl
   926 000007D3 A2[10000000]            				mov [y],al
   927 000007D8 EB0C                    				jmp localiza_punto3
   928                                  			
   929                                  			Ingresa3_normalY:
   930 000007DA A0[10000000]            				mov al,[y]
   931 000007DF 2C30                    				sub al,48
   932 000007E1 A2[10000000]            				mov [y],al
   933                                  
   934                                  			localiza_punto3:
   935                                  				;recibe un x,y
   936 000007E6 A0[10000000]            				mov al,[y]
   937 000007EB 8A1D[CF010000]          				mov bl,[dieciseis]
   938 000007F1 F6E3                    				mul bl
   939 000007F3 0205[0C000000]          				add al,[x]
   940 000007F9 A2[04000000]            				mov [punto],al
   941                                  
   942                                  
   943                                  				
   944                                  			par_o_impar3:
   945 000007FE 66A1[04000000]          				mov ax,[punto] 
   946 00000804 6683E001                				AND ax,1 
   947 00000808 7502                    				jnz linea_horizontal3
   948 0000080A EB2F                    				jmp linea_vertical3
   949                                  			
   950                                  
   951                                  			linea_horizontal3:
   952 0000080C E8E4000000              				call verifica_punto3
   953 00000811 B02D                    				mov al,45
   954 00000813 8B35[04000000]          				mov esi,[punto]
   955 00000819 8886[BE000000]          				mov [arreglo3+esi],al
   956                                  				
   957 0000081F 8A1D[02000000]          				mov bl,[turno]
   958 00000825 80C301                  				add bl,1
   959 00000828 881D[02000000]          				mov [turno],bl
   960                                  				
   961 0000082E 8B35[D3010000]          				mov esi,[quince]
   962 00000834 EB34                    				jmp verifica_letra3
   963 00000836 E98CFEFFFF              				jmp controla_turno3
   964                                  			
   965                                  			linea_vertical3:
   966 0000083B E8B5000000              				call verifica_punto3
   967 00000840 B07C                    				mov al,124
   968 00000842 8B35[04000000]          				mov esi,[punto]
   969 00000848 8886[BE000000]          				mov [arreglo3+esi],al
   970                                  				
   971 0000084E 8A1D[02000000]          				mov bl,[turno]
   972 00000854 80C301                  				add bl,1
   973 00000857 881D[02000000]          				mov [turno],bl
   974                                  				
   975 0000085D 8B35[D3010000]          				mov esi,[quince]
   976 00000863 EB05                    				jmp verifica_letra3
   977 00000865 E95DFEFFFF              				jmp controla_turno3
   978                                  
   979                                  			
   980                                  			verifica_letra3:
   981 0000086A 81FEE0000000            				cmp esi,224
   982 00000870 0F8751FEFFFF            				ja controla_turno3
   983 00000876 0F844BFEFFFF            				je controla_turno3
   984                                  
   985 0000087C 83C602                  				add esi,2
   986                                  				
   987 0000087F 8A86[BE000000]          				mov al,[arreglo3+esi]
   988 00000885 8A1D[14000000]          				mov bl,[letra]
   989                                  
   990 0000088B 3C0A                    				cmp al,10
   991 0000088D 740F                    				je suma_dieciseis
   992                                  				
   993 0000088F 38D8                    				cmp al,bl
   994 00000891 74D7                    				je verifica_letra3
   995                                  				
   996 00000893 3C20                    				cmp al,32
   997 00000895 75D3                    				jne verifica_letra3
   998                                  
   999 00000897 E807000000              				call verifica_cuadro3
  1000 0000089C EBCC                    				jmp verifica_letra3
  1001                                  
  1002                                  			suma_dieciseis:
  1003 0000089E 83C610                  				add esi,16
  1004 000008A1 EBC7                    				jmp verifica_letra3
  1005                                  				
  1006                                  			verifica_cuadro3:
  1007 000008A3 8A86[39000000]          				mov al,[arreglo2+esi]
  1008 000008A9 3C20                    				cmp al,32
  1009 000008AB 75BD                    				jne verifica_letra3
  1010                                  			
  1011 000008AD 89F7                    				mov edi,esi
  1012 000008AF 83EF10                  				sub edi,16
  1013 000008B2 8A87[BE000000]          				mov al,[arreglo3+edi]
  1014 000008B8 3C20                    				cmp al,32
  1015 000008BA 74AE                    				je verifica_letra3
  1016                                  
  1017 000008BC 89F7                    				mov edi,esi
  1018 000008BE 83C701                  				add edi,1
  1019 000008C1 8A87[BE000000]          				mov al,[arreglo3+edi]
  1020 000008C7 3C20                    				cmp al,32
  1021 000008C9 749F                    				je verifica_letra3
  1022                                  
  1023 000008CB 89F7                    				mov edi,esi
  1024 000008CD 83EF01                  				sub edi,1
  1025 000008D0 8A87[BE000000]          				mov al,[arreglo3+edi]
  1026 000008D6 3C20                    				cmp al,32
  1027 000008D8 7490                    				je verifica_letra3
  1028                                  					
  1029 000008DA 89F7                    				mov edi,esi
  1030 000008DC 83C710                  				add edi,16
  1031 000008DF 8A87[BE000000]          				mov al,[arreglo3+edi]
  1032 000008E5 3C20                    				cmp al,32
  1033 000008E7 7481                    				je verifica_letra3
  1034                                  					
  1035 000008E9 A0[14000000]            				mov al,[letra]
  1036 000008EE 8886[BE000000]          				mov [arreglo3+esi],al
  1037                                  
  1038 000008F4 C3                      				ret
  1039                                  				
  1040                                  			verifica_punto3:
  1041                                  				
  1042 000008F5 8B35[04000000]          				mov esi,[punto]
  1043                                  				
  1044 000008FB 8A86[BE000000]          				mov al,[arreglo3+esi]
  1045 00000901 3A05[BF010000]          				cmp al,[cuarentaseis]
  1046 00000907 7438                    				je imprime3_error2
  1047                                  				
  1048 00000909 8A86[BE000000]          				mov al,[arreglo3+esi]
  1049 0000090F 3A05[BB010000]          				cmp al,[cienveinticuatro]
  1050 00000915 740F                    				je imprime3_error1
  1051                                  				
  1052 00000917 8A86[BE000000]          				mov al,[arreglo3+esi]
  1053 0000091D 3A05[B7010000]          				cmp al,[cuarentacinco]
  1054 00000923 7401                    				je imprime3_error1
  1055                                  				
  1056 00000925 C3                      				ret
  1057                                  				
  1058                                  			imprime3_error1:
  1059                                  			
  1060 00000926 B9[3C020000]            				mov ecx,Error1
  1061 0000092B BA21000000              				mov edx,Error1len
  1062 00000930 BB01000000              				mov ebx,1
  1063 00000935 B804000000              				mov eax,4
  1064 0000093A CD80                    				int 0x80	
  1065 0000093C E8FBFDFFFF              				call solicita3_X
  1066                                  				
  1067                                  			imprime3_error2:
  1068                                  			
  1069 00000941 B9[5D020000]            				mov ecx,Error2
  1070 00000946 BA2E000000              				mov edx,Error2len
  1071 0000094B BB01000000              				mov ebx,1
  1072 00000950 B804000000              				mov eax,4
  1073 00000955 CD80                    				int 0x80	
  1074 00000957 E8E0FDFFFF              				call solicita3_X
  1075                                  				
  1076                                  		
  1077                                  		
  1078                                  		
  1079                                  
